; Function Attrs: mustprogress nounwind uwtable
define hidden noundef ptr @_ZN11OptoRuntime20multianewarrayN_TypeEv() #0 align 2 {
  %1 = tail call noundef ptr @_ZN9TypeTuple6fieldsEj(i32 noundef 2) #12
  %2 = load ptr, ptr @_ZN11TypeInstPtr7NOTNULLE, align 8
  %3 = getelementptr inbounds i8, ptr %1, i64 40
  store ptr %2, ptr %3, align 8
  %4 = getelementptr inbounds i8, ptr %1, i64 48
  store ptr %2, ptr %4, align 8
  %5 = tail call noundef ptr @_ZN9TypeTuple4makeEjPPK4Type(i32 noundef 7, ptr noundef %1) #12
  %6 = tail call noundef ptr @_ZN9TypeTuple6fieldsEj(i32 noundef 1) #12
  %7 = load ptr, ptr @_ZN10TypeRawPtr7NOTNULLE, align 8
  %8 = getelementptr inbounds i8, ptr %6, i64 40
  store ptr %7, ptr %8, align 8
  %9 = tail call noundef ptr @_ZN9TypeTuple4makeEjPPK4Type(i32 noundef 6, ptr noundef %6) #12
  %10 = tail call noundef ptr @_ZN8TypeFunc4makeEPK9TypeTupleS2_(ptr noundef %5, ptr noundef %9) #12
  ret ptr %10
}